0000000530654230: 8905cacdf5fe          mov [rip-0x10a3236], eax
0000000530654236: 4883ec38              sub rsp, 0x38
000000053065423a: 4983c610              add r14, 0x10
000000053065423e: 49c746f840060000      mov qword [r14-0x8], 0x640
0000000530654246: 49c70610020000        mov qword [r14], 0x210
000000053065424d: e84e5917ff            call 0x52f7c9ba0 (<array>)
0000000530654252: 4983c610              add r14, 0x10
0000000530654256: 498b4ef0              mov rcx, [r14-0x10]
000000053065425a: 498b5ee8              mov rbx, [r14-0x18]
000000053065425e: 4831c0                xor rax, rax
0000000530654261: 49895ef0              mov [r14-0x10], rbx
0000000530654265: 49894ee8              mov [r14-0x18], rcx
0000000530654269: 49894ef8              mov [r14-0x8], rcx

000000053065426d: e99f000000            jmp 0x530654311 (run-test + 0xe1)
0000000530654272: 48bb0100000000000000  mov rbx, 0x1
000000053065427c: 4885c9                test rcx, rcx
000000053065427f: 0f842e000000          jz dword 0x5306542b3 (run-test + 0x83)
0000000530654285: 498d4510              lea rax, [r13+0x10]
0000000530654289: 488b18                mov rbx, [rax]
000000053065428c: 48c70318000000        mov qword [rbx], 0x18
0000000530654293: 4883cb06              or rbx, 0x6

0000000530654297: 48830030              add qword [rax], 0x30
000000053065429b: 48c7430201000000      mov qword [rbx+0x2], 0x1
00000005306542a3: 48c7430a01000000      mov qword [rbx+0xa], 0x1

00000005306542ab: 48894b12              mov [rbx+0x12], rcx
00000005306542af: 48894b1a              mov [rbx+0x1a], rcx
00000005306542b3: 48894c2430            mov [rsp+0x30], rcx
00000005306542b8: 49891e                mov [r14], rbx
00000005306542bb: e890c5ffff            call 0x530650850 (dummy)
00000005306542c0: 4983ee18              sub r14, 0x18
00000005306542c4: 498b4e18              mov rcx, [r14+0x18]
00000005306542c8: 498b5e10              mov rbx, [r14+0x10]
00000005306542cc: 498b4608              mov rax, [r14+0x8]
00000005306542d0: 48c1f804              sar rax, 0x4
00000005306542d4: 48894cc30e            mov [rbx+rax*8+0xe], rcx
00000005306542d9: 488d4cc30e            lea rcx, [rbx+rax*8+0xe]
00000005306542de: 48c1e908              shr rcx, 0x8
00000005306542e2: 49bcb069131d05000000  mov r12, 0x51d1369b0
00000005306542ec: 4ac60421c0            mov byte [rcx+r12], 0xc0
00000005306542f1: 48c1e90a              shr rcx, 0xa
00000005306542f5: 49bca250342205000000  mov r12, 0x5223450a2
00000005306542ff: 4ac60421c0            mov byte [rcx+r12], 0xc0
0000000530654304: 498b06                mov rax, [r14]
0000000530654307: 4883c010              add rax, 0x10
000000053065430b: 8905efccf5fe          mov [rip-0x10a3311], eax
0000000530654311: 4881f840060000        cmp rax, 0x640
0000000530654318: 0f8ddb000000          jge dword 0x5306543f9 (run-test + 0x1c9)
000000053065431e: 4983c708              add r15, 0x8
0000000530654322: 4983c618              add r14, 0x18
0000000530654326: 498b4ed8              mov rcx, [r14-0x28]
000000053065432a: 49890e                mov [r14], rcx
000000053065432d: 498946e8              mov [r14-0x18], rax
0000000530654331: 498907                mov [r15], rax
0000000530654334: 498b4ee0              mov rcx, [r14-0x20]
0000000530654338: 49894ef8              mov [r14-0x8], rcx
000000053065433c: 498946f0              mov [r14-0x10], rax
0000000530654340: e8abb8ffff            call 0x53064fbf0 (>c-ptr)
0000000530654345: 4983ef08              sub r15, 0x8
0000000530654349: 498b5d00              mov rbx, [r13+0x0]
000000053065434d: 488d4c24f8            lea rcx, [rsp-0x8]
0000000530654352: 48890b                mov [rbx], rcx
0000000530654355: 4c897310              mov [rbx+0x10], r14
0000000530654359: 4c897b18              mov [rbx+0x18], r15
000000053065435d: 498b0e                mov rcx, [r14]
0000000530654360: 4831db                xor rbx, rbx
0000000530654363: 4883f901              cmp rcx, 0x1
0000000530654367: 0f8419000000          jz dword 0x530654386 (run-test + 0x156)
000000053065436d: 4889cb                mov rbx, rcx
0000000530654370: 4883e30f              and rbx, 0xf
0000000530654374: 4883fb06              cmp rbx, 0x6
0000000530654378: 488d5907              lea rbx, [rcx+0x7]
000000053065437c: 0f8504000000          jnz dword 0x530654386 (run-test + 0x156)
0000000530654382: 488b591a              mov rbx, [rcx+0x1a]
0000000530654386: 48895c2420            mov [rsp+0x20], rbx
000000053065438b: 498b4708              mov rax, [r15+0x8]
000000053065438f: 48c1f804              sar rax, 0x4
0000000530654393: 4889442428            mov [rsp+0x28], rax
0000000530654398: 488b4c2420            mov rcx, [rsp+0x20]
000000053065439d: 488b542428            mov rdx, [rsp+0x28]
00000005306543a2: 4831c0                xor rax, rax
00000005306543a5: 49bb0010d488f8070000  mov r11, 0x7f888d41000
00000005306543af: 49ffd3                call r11
00000005306543b2: 4889442430            mov [rsp+0x30], rax
00000005306543b7: 498d5d10              lea rbx, [r13+0x10]
00000005306543bb: 488b0b                mov rcx, [rbx]
00000005306543be: 4883c130              add rcx, 0x30
00000005306543c2: 483b4b10              cmp rcx, [rbx+0x10]
00000005306543c6: 0f8f0a000000          jg dword 0x5306543d6 (run-test + 0x1a6)
00000005306543cc: 488b4c2430            mov rcx, [rsp+0x30]
00000005306543d1: e99cfeffff            jmp 0x530654272 (run-test + 0x42)
00000005306543d6: 498b5d00              mov rbx, [r13+0x0]
00000005306543da: 488d4c24f8            lea rcx, [rsp-0x8]
00000005306543df: 48890b                mov [rbx], rcx
00000005306543e2: 4c897310              mov [rbx+0x10], r14
00000005306543e6: 4c897b18              mov [rbx+0x18], r15
00000005306543ea: e8911b4cff            call 0x52fb15f80 (minor-gc)
00000005306543ef: 488b4c2430            mov rcx, [rsp+0x30]
00000005306543f4: e979feffff            jmp 0x530654272 (run-test + 0x42)
00000005306543f9: 4983ee18              sub r14, 0x18
00000005306543fd: 8905fdcbf5fe          mov [rip-0x10a3403], eax
0000000530654403: 4883c438              add rsp, 0x38
0000000530654407: c3                    ret
0000000530654408: 0000                  add [rax], al
000000053065440a: 0000                  add [rax], al
000000053065440c: 0000                  add [rax], al
000000053065440e: 0000                  add [rax], al
